target datalayout = "e-m:e-p270:32:32-p271:32:32-p272:64:64-i64:64-i128:128-f80:128-n8:16:32:64-S128"
target triple = "x86_64-pc-linux-gnu"

%struct.sockaddr_un = type { i16, [108 x i8] }
%struct.JNINativeInterface_ = type { ptr, ptr, ptr, ptr, ptr, ptr, ptr, ptr, ptr, ptr, ptr, ptr, ptr, ptr, ptr, ptr, ptr, ptr, ptr, ptr, ptr, ptr, ptr, ptr, ptr, ptr, ptr, ptr, ptr, ptr, ptr, ptr, ptr, ptr, ptr, ptr, ptr, ptr, ptr, ptr, ptr, ptr, ptr, ptr, ptr, ptr, ptr, ptr, ptr, ptr, ptr, ptr, ptr, ptr, ptr, ptr, ptr, ptr, ptr, ptr, ptr, ptr, ptr, ptr, ptr, ptr, ptr, ptr, ptr, ptr, ptr, ptr, ptr, ptr, ptr, ptr, ptr, ptr, ptr, ptr, ptr, ptr, ptr, ptr, ptr, ptr, ptr, ptr, ptr, ptr, ptr, ptr, ptr, ptr, ptr, ptr, ptr, ptr, ptr, ptr, ptr, ptr, ptr, ptr, ptr, ptr, ptr, ptr, ptr, ptr, ptr, ptr, ptr, ptr, ptr, ptr, ptr, ptr, ptr, ptr, ptr, ptr, ptr, ptr, ptr, ptr, ptr, ptr, ptr, ptr, ptr, ptr, ptr, ptr, ptr, ptr, ptr, ptr, ptr, ptr, ptr, ptr, ptr, ptr, ptr, ptr, ptr, ptr, ptr, ptr, ptr, ptr, ptr, ptr, ptr, ptr, ptr, ptr, ptr, ptr, ptr, ptr, ptr, ptr, ptr, ptr, ptr, ptr, ptr, ptr, ptr, ptr, ptr, ptr, ptr, ptr, ptr, ptr, ptr, ptr, ptr, ptr, ptr, ptr, ptr, ptr, ptr, ptr, ptr, ptr, ptr, ptr, ptr, ptr, ptr, ptr, ptr, ptr, ptr, ptr, ptr, ptr, ptr, ptr, ptr, ptr, ptr, ptr, ptr, ptr, ptr, ptr, ptr, ptr, ptr, ptr, ptr, ptr, ptr, ptr, ptr, ptr, ptr, ptr, ptr, ptr, ptr, ptr, ptr, ptr, ptr, ptr, ptr, ptr, ptr }
%union.__CONST_SOCKADDR_ARG = type { ptr }

@.str = private unnamed_addr constant [25 x i8] c"java/net/SocketException\00", align 1
@.str.1 = private unnamed_addr constant [29 x i8] c"Unix domain path not present\00", align 1
@.str.2 = private unnamed_addr constant [26 x i8] c"Unix domain path too long\00", align 1

; Function Attrs: nounwind uwtable
define hidden i32 @unixSocketAddressToSockaddr(ptr noundef %0, ptr noundef %1, ptr noundef %2, ptr noundef %3) #0 {
  %5 = alloca i32, align 4
  %6 = alloca ptr, align 8
  %7 = alloca ptr, align 8
  %8 = alloca ptr, align 8
  %9 = alloca ptr, align 8
  %10 = alloca i32, align 4
  %11 = alloca ptr, align 8
  %12 = alloca i64, align 8
  store ptr %0, ptr %6, align 8
  store ptr %1, ptr %7, align 8
  store ptr %2, ptr %8, align 8
  store ptr %3, ptr %9, align 8
  %13 = load ptr, ptr %8, align 8
  call void @llvm.memset.p0.i64(ptr align 2 %13, i8 0, i64 110, i1 false)
  %14 = load ptr, ptr %8, align 8
  %15 = getelementptr inbounds %struct.sockaddr_un, ptr %14, i32 0, i32 0
  store i16 1, ptr %15, align 2
  %16 = load ptr, ptr %6, align 8
  %17 = load ptr, ptr %16, align 8
  %18 = getelementptr inbounds %struct.JNINativeInterface_, ptr %17, i32 0, i32 184
  %19 = load ptr, ptr %18, align 8
  %20 = load ptr, ptr %6, align 8
  %21 = load ptr, ptr %7, align 8
  %22 = call ptr %19(ptr noundef %20, ptr noundef %21, ptr noundef null)
  store ptr %22, ptr %11, align 8
  %23 = load ptr, ptr %11, align 8
  %24 = icmp eq ptr %23, null
  br i1 %24, label %25, label %27

25:                                               ; preds = %4
  %26 = load ptr, ptr %6, align 8
  call void @JNU_ThrowByName(ptr noundef %26, ptr noundef @.str, ptr noundef @.str.1)
  store i32 -1, ptr %5, align 4
  br label %60

27:                                               ; preds = %4
  %28 = load ptr, ptr %6, align 8
  %29 = load ptr, ptr %28, align 8
  %30 = getelementptr inbounds %struct.JNINativeInterface_, ptr %29, i32 0, i32 171
  %31 = load ptr, ptr %30, align 8
  %32 = load ptr, ptr %6, align 8
  %33 = load ptr, ptr %7, align 8
  %34 = call i32 %31(ptr noundef %32, ptr noundef %33)
  %35 = sext i32 %34 to i64
  store i64 %35, ptr %12, align 8
  %36 = load i64, ptr %12, align 8
  %37 = icmp ugt i64 %36, 106
  br i1 %37, label %38, label %40

38:                                               ; preds = %27
  %39 = load ptr, ptr %6, align 8
  call void @JNU_ThrowByName(ptr noundef %39, ptr noundef @.str, ptr noundef @.str.2)
  store i32 -1, ptr %10, align 4
  br label %51

40:                                               ; preds = %27
  %41 = load ptr, ptr %8, align 8
  %42 = getelementptr inbounds %struct.sockaddr_un, ptr %41, i32 0, i32 1
  %43 = getelementptr inbounds [108 x i8], ptr %42, i64 0, i64 0
  %44 = load ptr, ptr %11, align 8
  %45 = load i64, ptr %12, align 8
  call void @llvm.memcpy.p0.p0.i64(ptr align 2 %43, ptr align 1 %44, i64 %45, i1 false)
  %46 = load i64, ptr %12, align 8
  %47 = add i64 2, %46
  %48 = add i64 %47, 1
  %49 = trunc i64 %48 to i32
  %50 = load ptr, ptr %9, align 8
  store i32 %49, ptr %50, align 4
  store i32 0, ptr %10, align 4
  br label %51

51:                                               ; preds = %40, %38
  %52 = load ptr, ptr %6, align 8
  %53 = load ptr, ptr %52, align 8
  %54 = getelementptr inbounds %struct.JNINativeInterface_, ptr %53, i32 0, i32 192
  %55 = load ptr, ptr %54, align 8
  %56 = load ptr, ptr %6, align 8
  %57 = load ptr, ptr %7, align 8
  %58 = load ptr, ptr %11, align 8
  call void %55(ptr noundef %56, ptr noundef %57, ptr noundef %58, i32 noundef 0)
  %59 = load i32, ptr %10, align 4
  store i32 %59, ptr %5, align 4
  br label %60

60:                                               ; preds = %51, %25
  %61 = load i32, ptr %5, align 4
  ret i32 %61
}

; Function Attrs: nounwind uwtable
define i32 @Java_sun_nio_ch_UnixDomainSockets_connect0(ptr noundef %0, ptr noundef %1, ptr noundef %2, ptr noundef %3) #0 {
  %5 = alloca i32, align 4
  %6 = alloca ptr, align 8
  %7 = alloca ptr, align 8
  %8 = alloca ptr, align 8
  %9 = alloca ptr, align 8
  %10 = alloca %struct.sockaddr_un, align 2
  %11 = alloca i32, align 4
  %12 = alloca i32, align 4
  %13 = alloca %union.__CONST_SOCKADDR_ARG, align 8
  store ptr %0, ptr %6, align 8
  store ptr %1, ptr %7, align 8
  store ptr %2, ptr %8, align 8
  store ptr %3, ptr %9, align 8
  store i32 0, ptr %11, align 4
  %14 = load ptr, ptr %6, align 8
  %15 = load ptr, ptr %9, align 8
  %16 = call i32 @unixSocketAddressToSockaddr(ptr noundef %14, ptr noundef %15, ptr noundef %10, ptr noundef %11)
  %17 = icmp ne i32 %16, 0
  br i1 %17, label %18, label %19

18:                                               ; preds = %4
  store i32 -5, ptr %5, align 4
  br label %46

19:                                               ; preds = %4
  %20 = load ptr, ptr %6, align 8
  %21 = load ptr, ptr %8, align 8
  %22 = call i32 @fdval(ptr noundef %20, ptr noundef %21)
  store ptr %10, ptr %13, align 8
  %23 = load i32, ptr %11, align 4
  %24 = getelementptr inbounds %union.__CONST_SOCKADDR_ARG, ptr %13, i32 0, i32 0
  %25 = load ptr, ptr %24, align 8
  %26 = call i32 @connect(i32 noundef %22, ptr %25, i32 noundef %23)
  store i32 %26, ptr %12, align 4
  %27 = load i32, ptr %12, align 4
  %28 = icmp ne i32 %27, 0
  br i1 %28, label %29, label %45

29:                                               ; preds = %19
  %30 = call ptr @__errno_location() #9
  %31 = load i32, ptr %30, align 4
  %32 = icmp eq i32 %31, 115
  br i1 %32, label %33, label %34

33:                                               ; preds = %29
  store i32 -2, ptr %5, align 4
  br label %46

34:                                               ; preds = %29
  %35 = call ptr @__errno_location() #9
  %36 = load i32, ptr %35, align 4
  %37 = icmp eq i32 %36, 4
  br i1 %37, label %38, label %39

38:                                               ; preds = %34
  store i32 -3, ptr %5, align 4
  br label %46

39:                                               ; preds = %34
  br label %40

40:                                               ; preds = %39
  %41 = load ptr, ptr %6, align 8
  %42 = call ptr @__errno_location() #9
  %43 = load i32, ptr %42, align 4
  %44 = call i32 @handleSocketError(ptr noundef %41, i32 noundef %43)
  store i32 %44, ptr %5, align 4
  br label %46

45:                                               ; preds = %19
  store i32 1, ptr %5, align 4
  br label %46

46:                                               ; preds = %45, %40, %38, %33, %18
  %47 = load i32, ptr %5, align 4
  ret i32 %47
}