; Function Attrs: nounwind uwtable
define i32 @Java_sun_nio_ch_UnixDomainSockets_connect0(ptr noundef %0, ptr nocapture noundef readnone %1, ptr noundef %2, ptr noundef %3) local_unnamed_addr #0 {
  %5 = alloca %struct.sockaddr_un, align 2
  %6 = getelementptr inbounds i8, ptr %5, i64 2
  call void @llvm.memset.p0.i64(ptr noundef nonnull align 2 dereferenceable(110) %6, i8 0, i64 108, i1 false)
  store i16 1, ptr %5, align 2
  %7 = load ptr, ptr %0, align 8
  %8 = getelementptr inbounds i8, ptr %7, i64 1472
  %9 = load ptr, ptr %8, align 8
  %10 = tail call ptr %9(ptr noundef nonnull %0, ptr noundef %3, ptr noundef null) #9
  %11 = icmp eq ptr %10, null
  br i1 %11, label %unixSocketAddressToSockaddr.exit.thread, label %12

unixSocketAddressToSockaddr.exit.thread:          ; preds = %4
  tail call void @JNU_ThrowByName(ptr noundef nonnull %0, ptr noundef nonnull @.str, ptr noundef nonnull @.str.1) #9
  br label %35

12:                                               ; preds = %4
  %13 = load ptr, ptr %0, align 8
  %14 = getelementptr inbounds i8, ptr %13, i64 1368
  %15 = load ptr, ptr %14, align 8
  %16 = tail call i32 %15(ptr noundef nonnull %0, ptr noundef %3) #9
  %17 = icmp ult i32 %16, 107
  br i1 %17, label %21, label %unixSocketAddressToSockaddr.exit

unixSocketAddressToSockaddr.exit:                 ; preds = %12
  tail call void @JNU_ThrowByName(ptr noundef nonnull %0, ptr noundef nonnull @.str, ptr noundef nonnull @.str.2) #9
  %18 = load ptr, ptr %0, align 8
  %19 = getelementptr inbounds i8, ptr %18, i64 1536
  %20 = load ptr, ptr %19, align 8
  tail call void %20(ptr noundef nonnull %0, ptr noundef %3, ptr noundef nonnull %10, i32 noundef 0) #9
  br label %35

21:                                               ; preds = %12
  %22 = zext nneg i32 %16 to i64
  call void @llvm.memcpy.p0.p0.i64(ptr nonnull align 2 %6, ptr nonnull align 1 %10, i64 %22, i1 false)
  %23 = add nuw nsw i32 %16, 3
  %24 = load ptr, ptr %0, align 8
  %25 = getelementptr inbounds i8, ptr %24, i64 1536
  %26 = load ptr, ptr %25, align 8
  tail call void %26(ptr noundef nonnull %0, ptr noundef %3, ptr noundef nonnull %10, i32 noundef 0) #9
  %27 = tail call i32 @fdval(ptr noundef nonnull %0, ptr noundef %2) #9
  %28 = call i32 @connect(i32 noundef %27, ptr nonnull %5, i32 noundef %23) #9
  %.not7 = icmp eq i32 %28, 0
  br i1 %.not7, label %35, label %29

29:                                               ; preds = %21
  %30 = tail call ptr @__errno_location() #10
  %31 = load i32, ptr %30, align 4
  switch i32 %31, label %33 [
    i32 115, label %35
    i32 4, label %32
  ]

32:                                               ; preds = %29
  br label %35

33:                                               ; preds = %29
  %34 = call i32 @handleSocketError(ptr noundef nonnull %0, i32 noundef %31) #9
  br label %35

35:                                               ; preds = %unixSocketAddressToSockaddr.exit, %unixSocketAddressToSockaddr.exit.thread, %21, %29, %33, %32
  %.0 = phi i32 [ -3, %32 ], [ %34, %33 ], [ -5, %unixSocketAddressToSockaddr.exit ], [ -2, %29 ], [ 1, %21 ], [ -5, %unixSocketAddressToSockaddr.exit.thread ]
  ret i32 %.0
}